target datalayout = "e-m:e-p270:32:32-p271:32:32-p272:64:64-i64:64-i128:128-f80:128-n8:16:32:64-S128"
target triple = "x86_64-unknown-linux-gnu"

%struct.sdshdr8 = type { i8, i8, i8, [0 x i8] }
%struct.sdshdr16 = type <{ i16, i16, i8, [0 x i8] }>
%struct.sdshdr32 = type <{ i32, i32, i8, [0 x i8] }>
%struct.sdshdr64 = type <{ i64, i64, i8, [0 x i8] }>
%struct.__va_list_tag = type { i32, i32, ptr, ptr }

; Function Attrs: nounwind uwtable
define internal void @sdssetlen(ptr noundef %s, i64 noundef %newlen) #0 {
entry:
  %s.addr = alloca ptr, align 8
  %newlen.addr = alloca i64, align 8
  %flags = alloca i8, align 1
  %fp = alloca ptr, align 8
  store ptr %s, ptr %s.addr, align 8
  store i64 %newlen, ptr %newlen.addr, align 8
  %0 = load ptr, ptr %s.addr, align 8
  %arrayidx = getelementptr inbounds i8, ptr %0, i64 -1
  %1 = load i8, ptr %arrayidx, align 1
  store i8 %1, ptr %flags, align 1
  %2 = load i8, ptr %flags, align 1
  %conv = zext i8 %2 to i32
  %and = and i32 %conv, 7
  switch i32 %and, label %sw.epilog [
    i32 0, label %sw.bb
    i32 1, label %sw.bb2
    i32 2, label %sw.bb5
    i32 3, label %sw.bb9
    i32 4, label %sw.bb13
  ]

sw.bb:                                            ; preds = %entry
  %3 = load ptr, ptr %s.addr, align 8
  %add.ptr = getelementptr inbounds i8, ptr %3, i64 -1
  store ptr %add.ptr, ptr %fp, align 8
  %4 = load i64, ptr %newlen.addr, align 8
  %shl = shl i64 %4, 3
  %or = or i64 0, %shl
  %conv1 = trunc i64 %or to i8
  %5 = load ptr, ptr %fp, align 8
  store i8 %conv1, ptr %5, align 1
  br label %sw.epilog

sw.bb2:                                           ; preds = %entry
  %6 = load i64, ptr %newlen.addr, align 8
  %conv3 = trunc i64 %6 to i8
  %7 = load ptr, ptr %s.addr, align 8
  %add.ptr4 = getelementptr inbounds i8, ptr %7, i64 -3
  %len = getelementptr inbounds %struct.sdshdr8, ptr %add.ptr4, i32 0, i32 0
  store i8 %conv3, ptr %len, align 1
  br label %sw.epilog

sw.bb5:                                           ; preds = %entry
  %8 = load i64, ptr %newlen.addr, align 8
  %conv6 = trunc i64 %8 to i16
  %9 = load ptr, ptr %s.addr, align 8
  %add.ptr7 = getelementptr inbounds i8, ptr %9, i64 -5
  %len8 = getelementptr inbounds %struct.sdshdr16, ptr %add.ptr7, i32 0, i32 0
  store i16 %conv6, ptr %len8, align 1
  br label %sw.epilog

sw.bb9:                                           ; preds = %entry
  %10 = load i64, ptr %newlen.addr, align 8
  %conv10 = trunc i64 %10 to i32
  %11 = load ptr, ptr %s.addr, align 8
  %add.ptr11 = getelementptr inbounds i8, ptr %11, i64 -9
  %len12 = getelementptr inbounds %struct.sdshdr32, ptr %add.ptr11, i32 0, i32 0
  store i32 %conv10, ptr %len12, align 1
  br label %sw.epilog

sw.bb13:                                          ; preds = %entry
  %12 = load i64, ptr %newlen.addr, align 8
  %13 = load ptr, ptr %s.addr, align 8
  %add.ptr14 = getelementptr inbounds i8, ptr %13, i64 -17
  %len15 = getelementptr inbounds %struct.sdshdr64, ptr %add.ptr14, i32 0, i32 0
  store i64 %12, ptr %len15, align 1
  br label %sw.epilog

sw.epilog:                                        ; preds = %sw.bb13, %sw.bb9, %sw.bb5, %sw.bb2, %sw.bb, %entry
  ret void
}

; Function Attrs: nounwind uwtable
define dso_local ptr @sdsMakeRoomFor(ptr noundef %s, i64 noundef %addlen) #0 {
entry:
  %s.addr = alloca ptr, align 8
  %addlen.addr = alloca i64, align 8
  store ptr %s, ptr %s.addr, align 8
  store i64 %addlen, ptr %addlen.addr, align 8
  %0 = load ptr, ptr %s.addr, align 8
  %1 = load i64, ptr %addlen.addr, align 8
  %call = call ptr @_sdsMakeRoomFor(ptr noundef %0, i64 noundef %1, i32 noundef 1)
  ret ptr %call
}

; Function Attrs: nounwind uwtable
define internal i64 @sdslen(ptr noundef %s) #0 {
entry:
  %retval = alloca i64, align 8
  %s.addr = alloca ptr, align 8
  %flags = alloca i8, align 1
  store ptr %s, ptr %s.addr, align 8
  %0 = load ptr, ptr %s.addr, align 8
  %arrayidx = getelementptr inbounds i8, ptr %0, i64 -1
  %1 = load i8, ptr %arrayidx, align 1
  store i8 %1, ptr %flags, align 1
  %2 = load i8, ptr %flags, align 1
  %conv = zext i8 %2 to i32
  %and = and i32 %conv, 7
  switch i32 %and, label %sw.epilog [
    i32 0, label %sw.bb
    i32 1, label %sw.bb3
    i32 2, label %sw.bb5
    i32 3, label %sw.bb9
    i32 4, label %sw.bb13
  ]

sw.bb:                                            ; preds = %entry
  %3 = load i8, ptr %flags, align 1
  %conv1 = zext i8 %3 to i32
  %shr = ashr i32 %conv1, 3
  %conv2 = sext i32 %shr to i64
  store i64 %conv2, ptr %retval, align 8
  br label %return

sw.bb3:                                           ; preds = %entry
  %4 = load ptr, ptr %s.addr, align 8
  %add.ptr = getelementptr inbounds i8, ptr %4, i64 -3
  %len = getelementptr inbounds %struct.sdshdr8, ptr %add.ptr, i32 0, i32 0
  %5 = load i8, ptr %len, align 1
  %conv4 = zext i8 %5 to i64
  store i64 %conv4, ptr %retval, align 8
  br label %return

sw.bb5:                                           ; preds = %entry
  %6 = load ptr, ptr %s.addr, align 8
  %add.ptr6 = getelementptr inbounds i8, ptr %6, i64 -5
  %len7 = getelementptr inbounds %struct.sdshdr16, ptr %add.ptr6, i32 0, i32 0
  %7 = load i16, ptr %len7, align 1
  %conv8 = zext i16 %7 to i64
  store i64 %conv8, ptr %retval, align 8
  br label %return

sw.bb9:                                           ; preds = %entry
  %8 = load ptr, ptr %s.addr, align 8
  %add.ptr10 = getelementptr inbounds i8, ptr %8, i64 -9
  %len11 = getelementptr inbounds %struct.sdshdr32, ptr %add.ptr10, i32 0, i32 0
  %9 = load i32, ptr %len11, align 1
  %conv12 = zext i32 %9 to i64
  store i64 %conv12, ptr %retval, align 8
  br label %return

sw.bb13:                                          ; preds = %entry
  %10 = load ptr, ptr %s.addr, align 8
  %add.ptr14 = getelementptr inbounds i8, ptr %10, i64 -17
  %len15 = getelementptr inbounds %struct.sdshdr64, ptr %add.ptr14, i32 0, i32 0
  %11 = load i64, ptr %len15, align 1
  store i64 %11, ptr %retval, align 8
  br label %return

sw.epilog:                                        ; preds = %entry
  store i64 0, ptr %retval, align 8
  br label %return

return:                                           ; preds = %sw.epilog, %sw.bb13, %sw.bb9, %sw.bb5, %sw.bb3, %sw.bb
  %12 = load i64, ptr %retval, align 8
  ret i64 %12
}

; Function Attrs: nounwind uwtable
define dso_local ptr @sdscatlen(ptr noundef %s, ptr noundef %t, i64 noundef %len) #0 {
entry:
  %retval = alloca ptr, align 8
  %s.addr = alloca ptr, align 8
  %t.addr = alloca ptr, align 8
  %len.addr = alloca i64, align 8
  %curlen = alloca i64, align 8
  store ptr %s, ptr %s.addr, align 8
  store ptr %t, ptr %t.addr, align 8
  store i64 %len, ptr %len.addr, align 8
  %0 = load ptr, ptr %s.addr, align 8
  %call = call i64 @sdslen(ptr noundef %0)
  store i64 %call, ptr %curlen, align 8
  %1 = load ptr, ptr %s.addr, align 8
  %2 = load i64, ptr %len.addr, align 8
  %call1 = call ptr @sdsMakeRoomFor(ptr noundef %1, i64 noundef %2)
  store ptr %call1, ptr %s.addr, align 8
  %3 = load ptr, ptr %s.addr, align 8
  %cmp = icmp eq ptr %3, null
  br i1 %cmp, label %if.then, label %if.end

if.then:                                          ; preds = %entry
  store ptr null, ptr %retval, align 8
  br label %return

if.end:                                           ; preds = %entry
  %4 = load ptr, ptr %s.addr, align 8
  %5 = load i64, ptr %curlen, align 8
  %add.ptr = getelementptr inbounds i8, ptr %4, i64 %5
  %6 = load ptr, ptr %t.addr, align 8
  %7 = load i64, ptr %len.addr, align 8
  call void @llvm.memcpy.p0.p0.i64(ptr align 1 %add.ptr, ptr align 1 %6, i64 %7, i1 false)
  %8 = load ptr, ptr %s.addr, align 8
  %9 = load i64, ptr %curlen, align 8
  %10 = load i64, ptr %len.addr, align 8
  %add = add i64 %9, %10
  call void @sdssetlen(ptr noundef %8, i64 noundef %add)
  %11 = load ptr, ptr %s.addr, align 8
  %12 = load i64, ptr %curlen, align 8
  %13 = load i64, ptr %len.addr, align 8
  %add2 = add i64 %12, %13
  %arrayidx = getelementptr inbounds i8, ptr %11, i64 %add2
  store i8 0, ptr %arrayidx, align 1
  %14 = load ptr, ptr %s.addr, align 8
  store ptr %14, ptr %retval, align 8
  br label %return

return:                                           ; preds = %if.end, %if.then
  %15 = load ptr, ptr %retval, align 8
  ret ptr %15
}

; Function Attrs: nounwind uwtable
define dso_local ptr @sdscatvprintf(ptr noundef %s, ptr noundef %fmt, ptr noundef %ap) #0 {
entry:
  %retval = alloca ptr, align 8
  %s.addr = alloca ptr, align 8
  %fmt.addr = alloca ptr, align 8
  %ap.addr = alloca ptr, align 8
  %cpy = alloca [1 x %struct.__va_list_tag], align 16
  %staticbuf = alloca [1024 x i8], align 16
  %buf = alloca ptr, align 8
  %t = alloca ptr, align 8
  %buflen = alloca i64, align 8
  %bufstrlen = alloca i32, align 4
  store ptr %s, ptr %s.addr, align 8
  store ptr %fmt, ptr %fmt.addr, align 8
  store ptr %ap, ptr %ap.addr, align 8
  %arraydecay = getelementptr inbounds [1024 x i8], ptr %staticbuf, i64 0, i64 0
  store ptr %arraydecay, ptr %buf, align 8
  %0 = load ptr, ptr %fmt.addr, align 8
  %call = call i64 @strlen(ptr noundef %0) #12
  %mul = mul i64 %call, 2
  store i64 %mul, ptr %buflen, align 8
  %1 = load i64, ptr %buflen, align 8
  %cmp = icmp ugt i64 %1, 1024
  br i1 %cmp, label %if.then, label %if.else

if.then:                                          ; preds = %entry
  %2 = load i64, ptr %buflen, align 8
  %call1 = call noalias ptr @zmalloc(i64 noundef %2) #15
  store ptr %call1, ptr %buf, align 8
  %3 = load ptr, ptr %buf, align 8
  %cmp2 = icmp eq ptr %3, null
  br i1 %cmp2, label %if.then3, label %if.end

if.then3:                                         ; preds = %if.then
  store ptr null, ptr %retval, align 8
  br label %return

if.end:                                           ; preds = %if.then
  br label %if.end4

if.else:                                          ; preds = %entry
  store i64 1024, ptr %buflen, align 8
  br label %if.end4

if.end4:                                          ; preds = %if.else, %if.end
  br label %while.body

while.body:                                       ; preds = %if.end29, %if.end4
  %arraydecay5 = getelementptr inbounds [1 x %struct.__va_list_tag], ptr %cpy, i64 0, i64 0
  %4 = load ptr, ptr %ap.addr, align 8
  call void @llvm.va_copy.p0(ptr %arraydecay5, ptr %4)
  %5 = load ptr, ptr %buf, align 8
  %6 = load i64, ptr %buflen, align 8
  %7 = load ptr, ptr %fmt.addr, align 8
  %arraydecay6 = getelementptr inbounds [1 x %struct.__va_list_tag], ptr %cpy, i64 0, i64 0
  %call7 = call i32 @vsnprintf(ptr noundef %5, i64 noundef %6, ptr noundef %7, ptr noundef %arraydecay6) #13
  store i32 %call7, ptr %bufstrlen, align 4
  %arraydecay8 = getelementptr inbounds [1 x %struct.__va_list_tag], ptr %cpy, i64 0, i64 0
  call void @llvm.va_end.p0(ptr %arraydecay8)
  %8 = load i32, ptr %bufstrlen, align 4
  %cmp9 = icmp slt i32 %8, 0
  br i1 %cmp9, label %if.then10, label %if.end15

if.then10:                                        ; preds = %while.body
  %9 = load ptr, ptr %buf, align 8
  %arraydecay11 = getelementptr inbounds [1024 x i8], ptr %staticbuf, i64 0, i64 0
  %cmp12 = icmp ne ptr %9, %arraydecay11
  br i1 %cmp12, label %if.then13, label %if.end14

if.then13:                                        ; preds = %if.then10
  %10 = load ptr, ptr %buf, align 8
  call void @zfree(ptr noundef %10)
  br label %if.end14

if.end14:                                         ; preds = %if.then13, %if.then10
  store ptr null, ptr %retval, align 8
  br label %return

if.end15:                                         ; preds = %while.body
  %11 = load i32, ptr %bufstrlen, align 4
  %conv = sext i32 %11 to i64
  %12 = load i64, ptr %buflen, align 8
  %cmp16 = icmp uge i64 %conv, %12
  br i1 %cmp16, label %if.then18, label %if.end30

if.then18:                                        ; preds = %if.end15
  %13 = load ptr, ptr %buf, align 8
  %arraydecay19 = getelementptr inbounds [1024 x i8], ptr %staticbuf, i64 0, i64 0
  %cmp20 = icmp ne ptr %13, %arraydecay19
  br i1 %cmp20, label %if.then22, label %if.end23

if.then22:                                        ; preds = %if.then18
  %14 = load ptr, ptr %buf, align 8
  call void @zfree(ptr noundef %14)
  br label %if.end23

if.end23:                                         ; preds = %if.then22, %if.then18
  %15 = load i32, ptr %bufstrlen, align 4
  %conv24 = sext i32 %15 to i64
  %add = add i64 %conv24, 1
  store i64 %add, ptr %buflen, align 8
  %16 = load i64, ptr %buflen, align 8
  %call25 = call noalias ptr @zmalloc(i64 noundef %16) #15
  store ptr %call25, ptr %buf, align 8
  %17 = load ptr, ptr %buf, align 8
  %cmp26 = icmp eq ptr %17, null
  br i1 %cmp26, label %if.then28, label %if.end29

if.then28:                                        ; preds = %if.end23
  store ptr null, ptr %retval, align 8
  br label %return

if.end29:                                         ; preds = %if.end23
  br label %while.body

if.end30:                                         ; preds = %if.end15
  br label %while.end

while.end:                                        ; preds = %if.end30
  %18 = load ptr, ptr %s.addr, align 8
  %19 = load ptr, ptr %buf, align 8
  %20 = load i32, ptr %bufstrlen, align 4
  %conv31 = sext i32 %20 to i64
  %call32 = call ptr @sdscatlen(ptr noundef %18, ptr noundef %19, i64 noundef %conv31)
  store ptr %call32, ptr %t, align 8
  %21 = load ptr, ptr %buf, align 8
  %arraydecay33 = getelementptr inbounds [1024 x i8], ptr %staticbuf, i64 0, i64 0
  %cmp34 = icmp ne ptr %21, %arraydecay33
  br i1 %cmp34, label %if.then36, label %if.end37

if.then36:                                        ; preds = %while.end
  %22 = load ptr, ptr %buf, align 8
  call void @zfree(ptr noundef %22)
  br label %if.end37

if.end37:                                         ; preds = %if.then36, %while.end
  %23 = load ptr, ptr %t, align 8
  store ptr %23, ptr %retval, align 8
  br label %return

return:                                           ; preds = %if.end37, %if.then28, %if.end14, %if.then3
  %24 = load ptr, ptr %retval, align 8
  ret ptr %24
}