; Function Attrs: nounwind uwtable
define dso_local ptr @sdscatvprintf(ptr noundef %s, ptr nocapture noundef readonly %fmt, ptr noundef %ap) local_unnamed_addr #0 {
entry:
  %cpy = alloca [1 x %struct.__va_list_tag], align 16
  %staticbuf = alloca [1024 x i8], align 16
  %call = tail call i64 @strlen(ptr noundef nonnull dereferenceable(1) %fmt) #27
  %mul = shl i64 %call, 1
  %cmp = icmp ugt i64 %mul, 1024
  br i1 %cmp, label %if.then, label %while.body.preheader

if.then:                                          ; preds = %entry
  %call1 = tail call noalias ptr @zmalloc(i64 noundef %mul) #29
  %cmp2 = icmp eq ptr %call1, null
  br i1 %cmp2, label %return, label %while.body.preheader

while.body.preheader:                             ; preds = %entry, %if.then
  %buf.1.ph = phi ptr [ %staticbuf, %entry ], [ %call1, %if.then ]
  %buflen.1.ph = phi i64 [ 1024, %entry ], [ %mul, %if.then ]
  br label %while.body

while.body:                                       ; preds = %while.body.preheader, %if.end23
  %buf.1 = phi ptr [ %call25, %if.end23 ], [ %buf.1.ph, %while.body.preheader ]
  %buflen.1 = phi i64 [ %add, %if.end23 ], [ %buflen.1.ph, %while.body.preheader ]
  call void @llvm.va_copy.p0(ptr nonnull %cpy, ptr %ap)
  %call7 = call i32 @vsnprintf(ptr noundef nonnull %buf.1, i64 noundef %buflen.1, ptr noundef %fmt, ptr noundef nonnull %cpy) #25
  call void @llvm.va_end.p0(ptr nonnull %cpy)
  %cmp9 = icmp slt i32 %call7, 0
  br i1 %cmp9, label %if.then10, label %if.end15

if.then10:                                        ; preds = %while.body
  %cmp12.not = icmp eq ptr %buf.1, %staticbuf
  br i1 %cmp12.not, label %return, label %return.sink.split

if.end15:                                         ; preds = %while.body
  %conv = zext nneg i32 %call7 to i64
  %cmp16.not = icmp ugt i64 %buflen.1, %conv
  br i1 %cmp16.not, label %while.end, label %if.then18

if.then18:                                        ; preds = %if.end15
  %cmp20.not = icmp eq ptr %buf.1, %staticbuf
  br i1 %cmp20.not, label %if.end23, label %if.then22

if.then22:                                        ; preds = %if.then18
  call void @zfree(ptr noundef nonnull %buf.1) #25
  br label %if.end23

if.end23:                                         ; preds = %if.then22, %if.then18
  %add = add nuw nsw i64 %conv, 1
  %call25 = call noalias ptr @zmalloc(i64 noundef %add) #29
  %cmp26 = icmp eq ptr %call25, null
  br i1 %cmp26, label %return, label %while.body

while.end:                                        ; preds = %if.end15
  %arrayidx.i.i = getelementptr inbounds i8, ptr %s, i64 -1
  %0 = load i8, ptr %arrayidx.i.i, align 1
  %conv.i.i = zext i8 %0 to i32
  %and.i.i = and i32 %conv.i.i, 7
  switch i32 %and.i.i, label %sdslen.exit.i [
    i32 0, label %sw.bb.i.i
    i32 1, label %sw.bb3.i.i
    i32 2, label %sw.bb5.i.i
    i32 3, label %sw.bb9.i.i
    i32 4, label %sw.bb13.i.i
  ]

sw.bb.i.i:                                        ; preds = %while.end
  %shr.i.i = lshr i32 %conv.i.i, 3
  %conv2.i.i = zext nneg i32 %shr.i.i to i64
  br label %sdslen.exit.i

sw.bb3.i.i:                                       ; preds = %while.end
  %add.ptr.i.i = getelementptr inbounds i8, ptr %s, i64 -3
  %1 = load i8, ptr %add.ptr.i.i, align 1
  %conv4.i.i = zext i8 %1 to i64
  br label %sdslen.exit.i

sw.bb5.i.i:                                       ; preds = %while.end
  %add.ptr6.i.i = getelementptr inbounds i8, ptr %s, i64 -5
  %2 = load i16, ptr %add.ptr6.i.i, align 1
  %conv8.i.i = zext i16 %2 to i64
  br label %sdslen.exit.i

sw.bb9.i.i:                                       ; preds = %while.end
  %add.ptr10.i.i = getelementptr inbounds i8, ptr %s, i64 -9
  %3 = load i32, ptr %add.ptr10.i.i, align 1
  %conv12.i.i = zext i32 %3 to i64
  br label %sdslen.exit.i

sw.bb13.i.i:                                      ; preds = %while.end
  %add.ptr14.i.i = getelementptr inbounds i8, ptr %s, i64 -17
  %4 = load i64, ptr %add.ptr14.i.i, align 1
  br label %sdslen.exit.i

sdslen.exit.i:                                    ; preds = %sw.bb13.i.i, %sw.bb9.i.i, %sw.bb5.i.i, %sw.bb3.i.i, %sw.bb.i.i, %while.end
  %retval.0.i.i = phi i64 [ %4, %sw.bb13.i.i ], [ %conv12.i.i, %sw.bb9.i.i ], [ %conv8.i.i, %sw.bb5.i.i ], [ %conv4.i.i, %sw.bb3.i.i ], [ %conv2.i.i, %sw.bb.i.i ], [ 0, %while.end ]
  %call.i.i = call ptr @_sdsMakeRoomFor(ptr noundef nonnull %s, i64 noundef %conv, i32 noundef 1)
  %cmp.i = icmp eq ptr %call.i.i, null
  br i1 %cmp.i, label %sdscatlen.exit, label %if.end.i

if.end.i:                                         ; preds = %sdslen.exit.i
  %add.ptr.i = getelementptr inbounds i8, ptr %call.i.i, i64 %retval.0.i.i
  call void @llvm.memcpy.p0.p0.i64(ptr nonnull align 1 %add.ptr.i, ptr nonnull align 1 %buf.1, i64 %conv, i1 false)
  %add.i = add i64 %retval.0.i.i, %conv
  %arrayidx.i12.i = getelementptr inbounds i8, ptr %call.i.i, i64 -1
  %5 = load i8, ptr %arrayidx.i12.i, align 1
  %6 = and i8 %5, 7
  switch i8 %6, label %sdssetlen.exit.i [
    i8 0, label %sw.bb.i17.i
    i8 1, label %sw.bb2.i.i
    i8 2, label %sw.bb5.i16.i
    i8 3, label %sw.bb9.i15.i
    i8 4, label %sw.bb13.i13.i
  ]

sw.bb.i17.i:                                      ; preds = %if.end.i
  %newlen.tr.i.i = trunc i64 %add.i to i8
  %conv1.i.i = shl i8 %newlen.tr.i.i, 3
  store i8 %conv1.i.i, ptr %arrayidx.i12.i, align 1
  br label %sdssetlen.exit.i

sw.bb2.i.i:                                       ; preds = %if.end.i
  %conv3.i.i = trunc i64 %add.i to i8
  %add.ptr4.i.i = getelementptr inbounds i8, ptr %call.i.i, i64 -3
  store i8 %conv3.i.i, ptr %add.ptr4.i.i, align 1
  br label %sdssetlen.exit.i

sw.bb5.i16.i:                                     ; preds = %if.end.i
  %conv6.i.i = trunc i64 %add.i to i16
  %add.ptr7.i.i = getelementptr inbounds i8, ptr %call.i.i, i64 -5
  store i16 %conv6.i.i, ptr %add.ptr7.i.i, align 1
  br label %sdssetlen.exit.i

sw.bb9.i15.i:                                     ; preds = %if.end.i
  %conv10.i.i = trunc i64 %add.i to i32
  %add.ptr11.i.i = getelementptr inbounds i8, ptr %call.i.i, i64 -9
  store i32 %conv10.i.i, ptr %add.ptr11.i.i, align 1
  br label %sdssetlen.exit.i

sw.bb13.i13.i:                                    ; preds = %if.end.i
  %add.ptr14.i14.i = getelementptr inbounds i8, ptr %call.i.i, i64 -17
  store i64 %add.i, ptr %add.ptr14.i14.i, align 1
  br label %sdssetlen.exit.i

sdssetlen.exit.i:                                 ; preds = %sw.bb13.i13.i, %sw.bb9.i15.i, %sw.bb5.i16.i, %sw.bb2.i.i, %sw.bb.i17.i, %if.end.i
  %arrayidx.i = getelementptr inbounds i8, ptr %call.i.i, i64 %add.i
  store i8 0, ptr %arrayidx.i, align 1
  br label %sdscatlen.exit

sdscatlen.exit:                                   ; preds = %sdslen.exit.i, %sdssetlen.exit.i
  %cmp34.not = icmp eq ptr %buf.1, %staticbuf
  br i1 %cmp34.not, label %return, label %return.sink.split

return.sink.split:                                ; preds = %sdscatlen.exit, %if.then10
  %retval.0.ph = phi ptr [ null, %if.then10 ], [ %call.i.i, %sdscatlen.exit ]
  call void @zfree(ptr noundef nonnull %buf.1) #25
  br label %return

return:                                           ; preds = %if.end23, %return.sink.split, %sdscatlen.exit, %if.then10, %if.then
  %retval.0 = phi ptr [ null, %if.then ], [ null, %if.then10 ], [ %call.i.i, %sdscatlen.exit ], [ %retval.0.ph, %return.sink.split ], [ null, %if.end23 ]
  ret ptr %retval.0
}